target datalayout = "e-m:e-p270:32:32-p271:32:32-p272:64:64-i64:64-i128:128-f80:128-n8:16:32:64-S128"
target triple = "x86_64-pc-linux-gnu"

; Function Attrs: mustprogress uwtable
define hidden noundef zeroext i1 @_ZN6google24glog_internal_namespace_12SafeFNMatch_EPKcmS2_m(ptr noundef %0, i64 noundef %1, ptr noundef %2, i64 noundef %3) #0 {
  %5 = alloca i1, align 1
  %6 = alloca ptr, align 8
  %7 = alloca i64, align 8
  %8 = alloca ptr, align 8
  %9 = alloca i64, align 8
  %10 = alloca i64, align 8
  %11 = alloca i64, align 8
  %12 = alloca i32, align 4
  store ptr %0, ptr %6, align 8, !tbaa !3
  store i64 %1, ptr %7, align 8, !tbaa !8
  store ptr %2, ptr %8, align 8, !tbaa !3
  store i64 %3, ptr %9, align 8, !tbaa !8
  call void @llvm.lifetime.start.p0(i64 8, ptr %10) #15
  store i64 0, ptr %10, align 8, !tbaa !8
  call void @llvm.lifetime.start.p0(i64 8, ptr %11) #15
  store i64 0, ptr %11, align 8, !tbaa !8
  br label %13

13:                                               ; preds = %65, %4
  br label %14

14:                                               ; preds = %13
  %15 = load i64, ptr %10, align 8, !tbaa !8
  %16 = load i64, ptr %7, align 8, !tbaa !8
  %17 = icmp eq i64 %15, %16
  br i1 %17, label %18, label %23

18:                                               ; preds = %14
  %19 = load i64, ptr %11, align 8, !tbaa !8
  %20 = load i64, ptr %9, align 8, !tbaa !8
  %21 = icmp eq i64 %19, %20
  br i1 %21, label %22, label %23

22:                                               ; preds = %18
  store i1 true, ptr %5, align 1
  store i32 1, ptr %12, align 4
  br label %110

23:                                               ; preds = %18, %14
  %24 = load i64, ptr %10, align 8, !tbaa !8
  %25 = load i64, ptr %7, align 8, !tbaa !8
  %26 = icmp eq i64 %24, %25
  br i1 %26, label %27, label %28

27:                                               ; preds = %23
  store i1 false, ptr %5, align 1
  store i32 1, ptr %12, align 4
  br label %110

28:                                               ; preds = %23
  %29 = load i64, ptr %11, align 8, !tbaa !8
  %30 = load i64, ptr %9, align 8, !tbaa !8
  %31 = icmp eq i64 %29, %30
  br i1 %31, label %32, label %46

32:                                               ; preds = %28
  %33 = load i64, ptr %10, align 8, !tbaa !8
  %34 = add i64 %33, 1
  %35 = load i64, ptr %7, align 8, !tbaa !8
  %36 = icmp eq i64 %34, %35
  br i1 %36, label %37, label %44

37:                                               ; preds = %32
  %38 = load ptr, ptr %6, align 8, !tbaa !3
  %39 = load i64, ptr %10, align 8, !tbaa !8
  %40 = getelementptr inbounds nuw i8, ptr %38, i64 %39
  %41 = load i8, ptr %40, align 1, !tbaa !10
  %42 = sext i8 %41 to i32
  %43 = icmp eq i32 %42, 42
  br label %44

44:                                               ; preds = %37, %32
  %45 = phi i1 [ false, %32 ], [ %43, %37 ]
  store i1 %45, ptr %5, align 1
  store i32 1, ptr %12, align 4
  br label %110

46:                                               ; preds = %28
  %47 = load ptr, ptr %6, align 8, !tbaa !3
  %48 = load i64, ptr %10, align 8, !tbaa !8
  %49 = getelementptr inbounds nuw i8, ptr %47, i64 %48
  %50 = load i8, ptr %49, align 1, !tbaa !10
  %51 = sext i8 %50 to i32
  %52 = load ptr, ptr %8, align 8, !tbaa !3
  %53 = load i64, ptr %11, align 8, !tbaa !8
  %54 = getelementptr inbounds nuw i8, ptr %52, i64 %53
  %55 = load i8, ptr %54, align 1, !tbaa !10
  %56 = sext i8 %55 to i32
  %57 = icmp eq i32 %51, %56
  br i1 %57, label %65, label %58

58:                                               ; preds = %46
  %59 = load ptr, ptr %6, align 8, !tbaa !3
  %60 = load i64, ptr %10, align 8, !tbaa !8
  %61 = getelementptr inbounds nuw i8, ptr %59, i64 %60
  %62 = load i8, ptr %61, align 1, !tbaa !10
  %63 = sext i8 %62 to i32
  %64 = icmp eq i32 %63, 63
  br i1 %64, label %65, label %70

65:                                               ; preds = %58, %46
  %66 = load i64, ptr %10, align 8, !tbaa !8
  %67 = add i64 %66, 1
  store i64 %67, ptr %10, align 8, !tbaa !8
  %68 = load i64, ptr %11, align 8, !tbaa !8
  %69 = add i64 %68, 1
  store i64 %69, ptr %11, align 8, !tbaa !8
  br label %13, !llvm.loop !11

70:                                               ; preds = %58
  %71 = load ptr, ptr %6, align 8, !tbaa !3
  %72 = load i64, ptr %10, align 8, !tbaa !8
  %73 = getelementptr inbounds nuw i8, ptr %71, i64 %72
  %74 = load i8, ptr %73, align 1, !tbaa !10
  %75 = sext i8 %74 to i32
  %76 = icmp eq i32 %75, 42
  br i1 %76, label %77, label %109

77:                                               ; preds = %70
  %78 = load i64, ptr %10, align 8, !tbaa !8
  %79 = add i64 %78, 1
  %80 = load i64, ptr %7, align 8, !tbaa !8
  %81 = icmp eq i64 %79, %80
  br i1 %81, label %82, label %83

82:                                               ; preds = %77
  store i1 true, ptr %5, align 1
  store i32 1, ptr %12, align 4
  br label %110

83:                                               ; preds = %77
  br label %84

84:                                               ; preds = %104, %83
  %85 = load ptr, ptr %6, align 8, !tbaa !3
  %86 = load i64, ptr %10, align 8, !tbaa !8
  %87 = add i64 %86, 1
  %88 = getelementptr inbounds nuw i8, ptr %85, i64 %87
  %89 = load i64, ptr %7, align 8, !tbaa !8
  %90 = load i64, ptr %10, align 8, !tbaa !8
  %91 = add i64 %90, 1
  %92 = sub i64 %89, %91
  %93 = load ptr, ptr %8, align 8, !tbaa !3
  %94 = load i64, ptr %11, align 8, !tbaa !8
  %95 = getelementptr inbounds nuw i8, ptr %93, i64 %94
  %96 = load i64, ptr %9, align 8, !tbaa !8
  %97 = load i64, ptr %11, align 8, !tbaa !8
  %98 = sub i64 %96, %97
  %99 = call noundef zeroext i1 @_ZN6google24glog_internal_namespace_12SafeFNMatch_EPKcmS2_m(ptr noundef %88, i64 noundef %92, ptr noundef %95, i64 noundef %98)
  br i1 %99, label %100, label %101

100:                                              ; preds = %84
  store i1 true, ptr %5, align 1
  store i32 1, ptr %12, align 4
  br label %110

101:                                              ; preds = %84
  %102 = load i64, ptr %11, align 8, !tbaa !8
  %103 = add i64 %102, 1
  store i64 %103, ptr %11, align 8, !tbaa !8
  br label %104

104:                                              ; preds = %101
  %105 = load i64, ptr %11, align 8, !tbaa !8
  %106 = load i64, ptr %9, align 8, !tbaa !8
  %107 = icmp ne i64 %105, %106
  br i1 %107, label %84, label %108, !llvm.loop !13

108:                                              ; preds = %104
  store i1 false, ptr %5, align 1
  store i32 1, ptr %12, align 4
  br label %110

109:                                              ; preds = %70
  store i1 false, ptr %5, align 1
  store i32 1, ptr %12, align 4
  br label %110

110:                                              ; preds = %109, %108, %100, %82, %44, %27, %22
  call void @llvm.lifetime.end.p0(i64 8, ptr %11) #15
  call void @llvm.lifetime.end.p0(i64 8, ptr %10) #15
  %111 = load i1, ptr %5, align 1
  ret i1 %111
}