; Function Attrs: mustprogress nofree nosync nounwind willreturn memory(argmem: read) uwtable
define hidden noundef zeroext i1 @_ZN6google24glog_internal_namespace_12SafeFNMatch_EPKcmS2_m(ptr noundef readonly captures(none) %0, i64 noundef %1, ptr noundef readonly captures(none) %2, i64 noundef %3) local_unnamed_addr #0 {
  %5 = icmp eq i64 %1, 0
  %6 = icmp eq i64 %3, 0
  br i1 %5, label %.loopexit, label %.lr.ph

.lr.ph:                                           ; preds = %4, %22
  %7 = phi i1 [ %25, %22 ], [ %6, %4 ]
  %.051 = phi i64 [ %23, %22 ], [ 0, %4 ]
  br i1 %7, label %8, label %15

8:                                                ; preds = %.lr.ph
  %9 = add i64 %.051, 1
  %10 = icmp eq i64 %9, %1
  br i1 %10, label %11, label %.loopexit

11:                                               ; preds = %8
  %12 = getelementptr inbounds nuw i8, ptr %0, i64 %.051
  %13 = load i8, ptr %12, align 1, !tbaa !3
  %14 = icmp eq i8 %13, 42
  br label %.loopexit

15:                                               ; preds = %.lr.ph
  %16 = getelementptr inbounds nuw i8, ptr %0, i64 %.051
  %17 = load i8, ptr %16, align 1, !tbaa !3
  %18 = getelementptr inbounds nuw i8, ptr %2, i64 %.051
  %19 = load i8, ptr %18, align 1, !tbaa !3
  %20 = icmp eq i8 %17, %19
  %21 = icmp eq i8 %17, 63
  %or.cond41 = or i1 %21, %20
  br i1 %or.cond41, label %22, label %26

22:                                               ; preds = %15
  %23 = add nuw i64 %.051, 1
  %24 = icmp eq i64 %23, %1
  %25 = icmp eq i64 %23, %3
  br i1 %24, label %.loopexit, label %.lr.ph, !llvm.loop !6

26:                                               ; preds = %15
  %27 = icmp eq i8 %17, 42
  br i1 %27, label %28, label %.loopexit

28:                                               ; preds = %26
  %29 = add i64 %.051, 1
  %30 = icmp eq i64 %29, %1
  br i1 %30, label %.loopexit, label %.preheader

.preheader:                                       ; preds = %28
  %31 = getelementptr inbounds nuw i8, ptr %0, i64 %29
  %32 = sub i64 %1, %29
  br label %33

33:                                               ; preds = %33, %.preheader
  %.1 = phi i64 [ %.051, %.preheader ], [ %37, %33 ]
  %34 = getelementptr inbounds nuw i8, ptr %2, i64 %.1
  %35 = sub i64 %3, %.1
  %36 = tail call noundef zeroext i1 @_ZN6google24glog_internal_namespace_12SafeFNMatch_EPKcmS2_m(ptr noundef %31, i64 noundef %32, ptr noundef %34, i64 noundef %35)
  %37 = add i64 %.1, 1
  %.not = icmp eq i64 %37, %3
  %or.cond = or i1 %36, %.not
  br i1 %or.cond, label %.loopexit, label %33, !llvm.loop !8

.loopexit:                                        ; preds = %22, %33, %4, %26, %28, %8, %11
  %.036 = phi i1 [ false, %8 ], [ %14, %11 ], [ true, %28 ], [ false, %26 ], [ %6, %4 ], [ %36, %33 ], [ %25, %22 ]
  ret i1 %.036
}